; Function Attrs: nounwind sspstrong uwtable
define internal range(i64 0, 21) i64 @ossl_bn_is_negative(i64 noundef %0) #0 {
  %2 = tail call ptr @rb_check_typeddata(i64 noundef %0, ptr noundef nonnull @ossl_bn_type) #11
  %.not = icmp eq ptr %2, null
  br i1 %.not, label %3, label %5

3:                                                ; preds = %1
  %4 = load i64, ptr @rb_eRuntimeError, align 8, !tbaa !6
  tail call void (i64, ptr, ...) @ossl_raise(i64 noundef %4, ptr noundef nonnull @.str) #12
  unreachable

5:                                                ; preds = %1
  %6 = tail call i32 @BN_is_zero(ptr noundef nonnull %2) #11
  %.not5 = icmp eq i32 %6, 0
  br i1 %.not5, label %7, label %10

7:                                                ; preds = %5
  %8 = tail call i32 @BN_is_negative(ptr noundef nonnull %2) #11
  %.not6 = icmp eq i32 %8, 0
  %9 = select i1 %.not6, i64 0, i64 20
  br label %10

10:                                               ; preds = %5, %7
  %.0 = phi i64 [ %9, %7 ], [ 0, %5 ]
  ret i64 %.0
}